target datalayout = "e-m:e-p270:32:32-p271:32:32-p272:64:64-i64:64-i128:128-f80:128-n8:16:32:64-S128"
target triple = "x86_64-pc-linux-gnu"

%struct.grpc_slice = type { ptr, %"union.grpc_slice::grpc_slice_data" }
%"union.grpc_slice::grpc_slice_data" = type { %"struct.grpc_slice::grpc_slice_data::grpc_slice_refcounted", [8 x i8] }
%"struct.grpc_slice::grpc_slice_data::grpc_slice_refcounted" = type { i64, ptr }

; Function Attrs: mustprogress uwtable
define void @grpc_slice_buffer_addn(ptr noundef %0, ptr noundef %1, i64 noundef %2) #4 {
  %4 = alloca ptr, align 8
  %5 = alloca ptr, align 8
  %6 = alloca i64, align 8
  %7 = alloca i64, align 8
  %8 = alloca %struct.grpc_slice, align 8
  store ptr %0, ptr %4, align 8, !tbaa !10
  store ptr %1, ptr %5, align 8, !tbaa !17
  store i64 %2, ptr %6, align 8, !tbaa !16
  call void @llvm.lifetime.start.p0(i64 8, ptr %7) #3
  store i64 0, ptr %7, align 8, !tbaa !16
  br label %9

9:                                                ; preds = %18, %3
  %10 = load i64, ptr %7, align 8, !tbaa !16
  %11 = load i64, ptr %6, align 8, !tbaa !16
  %12 = icmp ult i64 %10, %11
  br i1 %12, label %13, label %21

13:                                               ; preds = %9
  %14 = load ptr, ptr %4, align 8, !tbaa !10
  %15 = load ptr, ptr %5, align 8, !tbaa !17
  %16 = load i64, ptr %7, align 8, !tbaa !16
  %17 = getelementptr inbounds nuw %struct.grpc_slice, ptr %15, i64 %16
  call void @llvm.memcpy.p0.p0.i64(ptr align 8 %8, ptr align 8 %17, i64 32, i1 false), !tbaa.struct !24
  call void @grpc_slice_buffer_add(ptr noundef %14, ptr noundef byval(%struct.grpc_slice) align 8 %8)
  br label %18

18:                                               ; preds = %13
  %19 = load i64, ptr %7, align 8, !tbaa !16
  %20 = add i64 %19, 1
  store i64 %20, ptr %7, align 8, !tbaa !16
  br label %9, !llvm.loop !56

21:                                               ; preds = %9
  call void @llvm.lifetime.end.p0(i64 8, ptr %7) #3
  ret void
}