; Function Attrs: mustprogress uwtable
define void @grpc_slice_buffer_addn(ptr noundef %0, ptr noundef readonly captures(none) %1, i64 noundef %2) local_unnamed_addr #3 {
  %.not = icmp eq i64 %2, 0
  br i1 %.not, label %._crit_edge, label %.lr.ph

.lr.ph:                                           ; preds = %3, %.lr.ph
  %.05 = phi i64 [ %5, %.lr.ph ], [ 0, %3 ]
  %4 = getelementptr inbounds nuw %struct.grpc_slice, ptr %1, i64 %.05
  tail call void @grpc_slice_buffer_add(ptr noundef %0, ptr noundef nonnull byval(%struct.grpc_slice) align 8 %4)
  %5 = add nuw i64 %.05, 1
  %exitcond.not = icmp eq i64 %5, %2
  br i1 %exitcond.not, label %._crit_edge, label %.lr.ph, !llvm.loop !63

._crit_edge:                                      ; preds = %.lr.ph, %3
  ret void
}